target datalayout = "e-m:e-p270:32:32-p271:32:32-p272:64:64-i64:64-i128:128-f80:128-n8:16:32:64-S128"
target triple = "x86_64-unknown-linux-gnu"

%"class.std::__cxx11::basic_string" = type { %"struct.std::__cxx11::basic_string<char>::_Alloc_hider", i64, %union.anon }
%"struct.std::__cxx11::basic_string<char>::_Alloc_hider" = type { ptr }
%union.anon = type { i64, [8 x i8] }
%"class.std::set" = type { %"class.std::_Rb_tree" }
%"class.std::_Rb_tree" = type { %"struct.std::_Rb_tree<std::__cxx11::basic_string<char>, std::__cxx11::basic_string<char>, std::_Identity<std::__cxx11::basic_string<char>>, re2::Prefilter::LengthThenLex>::_Rb_tree_impl" }
%"struct.std::_Rb_tree<std::__cxx11::basic_string<char>, std::__cxx11::basic_string<char>, std::_Identity<std::__cxx11::basic_string<char>>, re2::Prefilter::LengthThenLex>::_Rb_tree_impl" = type { %"struct.std::_Rb_tree_key_compare", %"struct.std::_Rb_tree_header" }
%"struct.std::_Rb_tree_key_compare" = type { %"struct.re2::Prefilter::LengthThenLex" }
%"struct.re2::Prefilter::LengthThenLex" = type { i8 }
%"struct.std::_Rb_tree_header" = type { %"struct.std::_Rb_tree_node_base", i64 }
%"struct.std::_Rb_tree_node_base" = type { i32, ptr, ptr, ptr }
%"class.re2::Prefilter::Info" = type { %"class.std::set", i8, ptr }
%"class.re2::RE2" = type <{ ptr, %"class.re2::RE2::Options", ptr, ptr, ptr, ptr, i32, i32, %"class.std::__cxx11::basic_string", ptr, ptr, ptr, ptr, %"class.absl::debian2::once_flag", %"class.absl::debian2::once_flag", %"class.absl::debian2::once_flag", [4 x i8] }>
%"class.re2::RE2::Options" = type <{ i64, i32, i8, i8, i8, i8, i8, i8, i8, i8, i8, i8, i8, i8 }>
%"class.absl::debian2::once_flag" = type { %"struct.std::atomic" }
%"struct.std::atomic" = type { %"struct.std::__atomic_base" }
%"struct.std::__atomic_base" = type { i32 }

@_ZN3re29Prefilter4InfoD1Ev = unnamed_addr alias void (ptr), ptr @_ZN3re29Prefilter4InfoD2Ev

; Function Attrs: mustprogress uwtable
define noundef ptr @_ZN3re29Prefilter4Info9TakeMatchEv(ptr noundef nonnull align 8 dereferenceable(64) %this) #0 align 2 {
entry:
  %this.addr = alloca ptr, align 8
  %m = alloca ptr, align 8
  store ptr %this, ptr %this.addr, align 8
  %this1 = load ptr, ptr %this.addr, align 8
  %is_exact_ = getelementptr inbounds %"class.re2::Prefilter::Info", ptr %this1, i32 0, i32 1
  %0 = load i8, ptr %is_exact_, align 8
  %tobool = trunc i8 %0 to i1
  br i1 %tobool, label %if.then, label %if.end

if.then:                                          ; preds = %entry
  %exact_ = getelementptr inbounds %"class.re2::Prefilter::Info", ptr %this1, i32 0, i32 0
  %call = call noundef ptr @_ZN3re29Prefilter9OrStringsEPSt3setINSt7__cxx1112basic_stringIcSt11char_traitsIcESaIcEEENS0_13LengthThenLexESaIS7_EE(ptr noundef %exact_)
  %match_ = getelementptr inbounds %"class.re2::Prefilter::Info", ptr %this1, i32 0, i32 2
  store ptr %call, ptr %match_, align 8
  %is_exact_2 = getelementptr inbounds %"class.re2::Prefilter::Info", ptr %this1, i32 0, i32 1
  store i8 0, ptr %is_exact_2, align 8
  br label %if.end

if.end:                                           ; preds = %if.then, %entry
  %match_3 = getelementptr inbounds %"class.re2::Prefilter::Info", ptr %this1, i32 0, i32 2
  %1 = load ptr, ptr %match_3, align 8
  store ptr %1, ptr %m, align 8
  %match_4 = getelementptr inbounds %"class.re2::Prefilter::Info", ptr %this1, i32 0, i32 2
  store ptr null, ptr %match_4, align 8
  %2 = load ptr, ptr %m, align 8
  ret ptr %2
}

; Function Attrs: mustprogress uwtable
define noundef ptr @_ZN3re29Prefilter10FromRegexpEPNS_6RegexpE(ptr noundef %re) #0 align 2 {
entry:
  %retval = alloca ptr, align 8
  %re.addr = alloca ptr, align 8
  %simple = alloca ptr, align 8
  %info = alloca ptr, align 8
  %m = alloca ptr, align 8
  store ptr %re, ptr %re.addr, align 8
  %0 = load ptr, ptr %re.addr, align 8
  %cmp = icmp eq ptr %0, null
  br i1 %cmp, label %if.then, label %if.end

if.then:                                          ; preds = %entry
  store ptr null, ptr %retval, align 8
  br label %return

if.end:                                           ; preds = %entry
  %1 = load ptr, ptr %re.addr, align 8
  %call = call noundef ptr @_ZN3re26Regexp8SimplifyEv(ptr noundef nonnull align 8 dereferenceable(40) %1)
  store ptr %call, ptr %simple, align 8
  %2 = load ptr, ptr %simple, align 8
  %cmp1 = icmp eq ptr %2, null
  br i1 %cmp1, label %if.then2, label %if.end3

if.then2:                                         ; preds = %if.end
  store ptr null, ptr %retval, align 8
  br label %return

if.end3:                                          ; preds = %if.end
  %3 = load ptr, ptr %simple, align 8
  %call4 = call noundef ptr @_ZN3re29Prefilter9BuildInfoEPNS_6RegexpE(ptr noundef %3)
  store ptr %call4, ptr %info, align 8
  %4 = load ptr, ptr %simple, align 8
  call void @_ZN3re26Regexp6DecrefEv(ptr noundef nonnull align 8 dereferenceable(40) %4)
  %5 = load ptr, ptr %info, align 8
  %cmp5 = icmp eq ptr %5, null
  br i1 %cmp5, label %if.then6, label %if.end7

if.then6:                                         ; preds = %if.end3
  store ptr null, ptr %retval, align 8
  br label %return

if.end7:                                          ; preds = %if.end3
  %6 = load ptr, ptr %info, align 8
  %call8 = call noundef ptr @_ZN3re29Prefilter4Info9TakeMatchEv(ptr noundef nonnull align 8 dereferenceable(64) %6)
  store ptr %call8, ptr %m, align 8
  %7 = load ptr, ptr %info, align 8
  %isnull = icmp eq ptr %7, null
  br i1 %isnull, label %delete.end, label %delete.notnull

delete.notnull:                                   ; preds = %if.end7
  call void @_ZN3re29Prefilter4InfoD1Ev(ptr noundef nonnull align 8 dereferenceable(64) %7) #13
  call void @_ZdlPv(ptr noundef %7) #15
  br label %delete.end

delete.end:                                       ; preds = %delete.notnull, %if.end7
  %8 = load ptr, ptr %m, align 8
  store ptr %8, ptr %retval, align 8
  br label %return

return:                                           ; preds = %delete.end, %if.then6, %if.then2, %if.then
  %9 = load ptr, ptr %retval, align 8
  ret ptr %9
}

; Function Attrs: mustprogress nounwind uwtable
define linkonce_odr noundef ptr @_ZNK3re23RE26RegexpEv(ptr noundef nonnull align 8 dereferenceable(148) %this) #3 comdat align 2 {
entry:
  %this.addr = alloca ptr, align 8
  store ptr %this, ptr %this.addr, align 8
  %this1 = load ptr, ptr %this.addr, align 8
  %entire_regexp_ = getelementptr inbounds %"class.re2::RE2", ptr %this1, i32 0, i32 2
  %0 = load ptr, ptr %entire_regexp_, align 8
  ret ptr %0
}

; Function Attrs: mustprogress uwtable
define noundef ptr @_ZN3re29Prefilter7FromRE2EPKNS_3RE2E(ptr noundef %re2) #0 align 2 {
entry:
  %retval = alloca ptr, align 8
  %re2.addr = alloca ptr, align 8
  %regexp = alloca ptr, align 8
  store ptr %re2, ptr %re2.addr, align 8
  %0 = load ptr, ptr %re2.addr, align 8
  %cmp = icmp eq ptr %0, null
  br i1 %cmp, label %if.then, label %if.end

if.then:                                          ; preds = %entry
  store ptr null, ptr %retval, align 8
  br label %return

if.end:                                           ; preds = %entry
  %1 = load ptr, ptr %re2.addr, align 8
  %call = call noundef ptr @_ZNK3re23RE26RegexpEv(ptr noundef nonnull align 8 dereferenceable(148) %1)
  store ptr %call, ptr %regexp, align 8
  %2 = load ptr, ptr %regexp, align 8
  %cmp1 = icmp eq ptr %2, null
  br i1 %cmp1, label %if.then2, label %if.end3

if.then2:                                         ; preds = %if.end
  store ptr null, ptr %retval, align 8
  br label %return

if.end3:                                          ; preds = %if.end
  %3 = load ptr, ptr %regexp, align 8
  %call4 = call noundef ptr @_ZN3re29Prefilter10FromRegexpEPNS_6RegexpE(ptr noundef %3)
  store ptr %call4, ptr %retval, align 8
  br label %return

return:                                           ; preds = %if.end3, %if.then2, %if.then
  %4 = load ptr, ptr %retval, align 8
  ret ptr %4
}