; Function Attrs: mustprogress uwtable
define noundef ptr @_ZN3re29Prefilter7FromRE2EPKNS_3RE2E(ptr noundef readonly %re2) local_unnamed_addr #0 align 2 {
entry:
  %cmp = icmp eq ptr %re2, null
  br i1 %cmp, label %return, label %if.end

if.end:                                           ; preds = %entry
  %entire_regexp_.i = getelementptr inbounds i8, ptr %re2, i64 32
  %0 = load ptr, ptr %entire_regexp_.i, align 8
  %cmp1 = icmp eq ptr %0, null
  br i1 %cmp1, label %return, label %if.end.i

if.end.i:                                         ; preds = %if.end
  %call.i = tail call noundef ptr @_ZN3re26Regexp8SimplifyEv(ptr noundef nonnull align 8 dereferenceable(40) %0)
  %cmp1.i = icmp eq ptr %call.i, null
  br i1 %cmp1.i, label %return, label %if.end3.i

if.end3.i:                                        ; preds = %if.end.i
  %call4.i = tail call noundef ptr @_ZN3re29Prefilter9BuildInfoEPNS_6RegexpE(ptr noundef nonnull %call.i)
  tail call void @_ZN3re26Regexp6DecrefEv(ptr noundef nonnull align 8 dereferenceable(40) %call.i)
  %cmp5.i = icmp eq ptr %call4.i, null
  br i1 %cmp5.i, label %return, label %if.end7.i

if.end7.i:                                        ; preds = %if.end3.i
  %is_exact_.i.i = getelementptr inbounds i8, ptr %call4.i, i64 48
  %1 = load i8, ptr %is_exact_.i.i, align 8
  %2 = and i8 %1, 1
  %tobool.not.i.i = icmp eq i8 %2, 0
  br i1 %tobool.not.i.i, label %entry.if.end_crit_edge.i.i, label %if.then.i.i

entry.if.end_crit_edge.i.i:                       ; preds = %if.end7.i
  %match_3.phi.trans.insert.i.i = getelementptr inbounds i8, ptr %call4.i, i64 56
  %.pre.i.i = load ptr, ptr %match_3.phi.trans.insert.i.i, align 8
  br label %_ZN3re29Prefilter4Info9TakeMatchEv.exit.i

if.then.i.i:                                      ; preds = %if.end7.i
  %call.i.i = tail call noundef ptr @_ZN3re29Prefilter9OrStringsEPSt3setINSt7__cxx1112basic_stringIcSt11char_traitsIcESaIcEEENS0_13LengthThenLexESaIS7_EE(ptr noundef nonnull %call4.i)
  store i8 0, ptr %is_exact_.i.i, align 8
  br label %_ZN3re29Prefilter4Info9TakeMatchEv.exit.i

_ZN3re29Prefilter4Info9TakeMatchEv.exit.i:        ; preds = %if.then.i.i, %entry.if.end_crit_edge.i.i
  %3 = phi ptr [ %.pre.i.i, %entry.if.end_crit_edge.i.i ], [ %call.i.i, %if.then.i.i ]
  %match_3.i.i = getelementptr inbounds i8, ptr %call4.i, i64 56
  store ptr null, ptr %match_3.i.i, align 8
  tail call void @_ZN3re29Prefilter4InfoD1Ev(ptr noundef nonnull align 8 dereferenceable(64) %call4.i) #16
  tail call void @_ZdlPv(ptr noundef nonnull %call4.i) #18
  br label %return

return:                                           ; preds = %_ZN3re29Prefilter4Info9TakeMatchEv.exit.i, %if.end3.i, %if.end.i, %if.end, %entry
  %retval.0 = phi ptr [ null, %entry ], [ null, %if.end ], [ %3, %_ZN3re29Prefilter4Info9TakeMatchEv.exit.i ], [ null, %if.end.i ], [ null, %if.end3.i ]
  ret ptr %retval.0
}